; Function Attrs: nounwind uwtable
define dso_local void @memtest_fill_random(ptr nocapture noundef writeonly %l, i64 noundef %bytes, i32 noundef %interactive) local_unnamed_addr #2 {
entry:
  %div124 = lshr i64 %bytes, 4
  %div225 = lshr i64 %bytes, 13
  %and = and i64 %bytes, 4095
  %cmp = icmp eq i64 %and, 0
  br i1 %cmp, label %for.cond.preheader, label %cond.false

for.cond.preheader:                               ; preds = %entry
  %cmp826.not = icmp ult i64 %bytes, 8192
  br i1 %cmp826.not, label %for.end23, label %for.cond.preheader.split.us

for.cond.preheader.split.us:                      ; preds = %for.cond.preheader
  %tobool19.not = icmp eq i32 %interactive, 0
  br i1 %tobool19.not, label %for.body.us, label %for.body.us.us

for.body.us.us:                                   ; preds = %for.cond.preheader.split.us, %for.cond7.for.inc21_crit_edge.split.us49.us
  %rseed.032.us.us = phi i64 [ %xor13.us43.us, %for.cond7.for.inc21_crit_edge.split.us49.us ], [ -3372857614747716250, %for.cond.preheader.split.us ]
  %off.031.us.us = phi i64 [ %inc22.us.us, %for.cond7.for.inc21_crit_edge.split.us49.us ], [ 0, %for.cond.preheader.split.us ]
  %add.ptr.us.us = getelementptr inbounds i64, ptr %l, i64 %off.031.us.us
  %add.ptr6.us.us = getelementptr inbounds i64, ptr %add.ptr.us.us, i64 %div124
  %mul20.us.us = mul nuw nsw i64 %off.031.us.us, %div225
  br label %do.body.us33.us

do.body.us33.us:                                  ; preds = %for.body.us.us, %for.inc.us.us
  %rseed.130.us34.us = phi i64 [ %rseed.032.us.us, %for.body.us.us ], [ %xor13.us43.us, %for.inc.us.us ]
  %l2.029.us35.us = phi ptr [ %add.ptr6.us.us, %for.body.us.us ], [ %add.ptr15.us46.us, %for.inc.us.us ]
  %l1.028.us36.us = phi ptr [ %add.ptr.us.us, %for.body.us.us ], [ %add.ptr14.us45.us, %for.inc.us.us ]
  %w.027.us37.us = phi i64 [ 0, %for.body.us.us ], [ %inc.us47.us, %for.inc.us.us ]
  %shr.us38.us = lshr i64 %rseed.130.us34.us, 12
  %xor.us39.us = xor i64 %shr.us38.us, %rseed.130.us34.us
  %shl.us40.us = shl i64 %xor.us39.us, 25
  %xor11.us41.us = xor i64 %shl.us40.us, %xor.us39.us
  %shr12.us42.us = lshr i64 %xor11.us41.us, 27
  %xor13.us43.us = xor i64 %shr12.us42.us, %xor11.us41.us
  %mul.us44.us = mul i64 %xor13.us43.us, 2685821657736338717
  store i64 %mul.us44.us, ptr %l2.029.us35.us, align 8
  store i64 %mul.us44.us, ptr %l1.028.us36.us, align 8
  %add.ptr14.us45.us = getelementptr inbounds i8, ptr %l1.028.us36.us, i64 4096
  %add.ptr15.us46.us = getelementptr inbounds i8, ptr %l2.029.us35.us, i64 4096
  %and16.us.us = and i64 %w.027.us37.us, 65535
  %cmp17.us.us = icmp eq i64 %and16.us.us, 0
  br i1 %cmp17.us.us, label %if.then.us.us, label %for.inc.us.us

if.then.us.us:                                    ; preds = %do.body.us33.us
  %add.us.us = add nuw nsw i64 %w.027.us37.us, %mul20.us.us
  %0 = load i64, ptr @progress_full, align 8
  %mul.i.us.us = mul i64 %0, %add.us.us
  %div.i.us.us = udiv i64 %mul.i.us.us, %div124
  %1 = load i64, ptr @progress_printed, align 8
  %cmp4.not.i.us.us = icmp eq i64 %div.i.us.us, %1
  br i1 %cmp4.not.i.us.us, label %memtest_progress_step.exit.us.us, label %for.body.i.us.us

for.body.i.us.us:                                 ; preds = %if.then.us.us, %for.body.i.us.us
  %j.05.i.us.us = phi i64 [ %inc.i.us.us, %for.body.i.us.us ], [ 0, %if.then.us.us ]
  %putchar.i.us.us = tail call i32 @putchar(i32 82)
  %inc.i.us.us = add nuw i64 %j.05.i.us.us, 1
  %2 = load i64, ptr @progress_printed, align 8
  %sub.i.us.us = sub i64 %div.i.us.us, %2
  %cmp.i.us.us = icmp ult i64 %inc.i.us.us, %sub.i.us.us
  br i1 %cmp.i.us.us, label %for.body.i.us.us, label %memtest_progress_step.exit.us.us, !llvm.loop !7

memtest_progress_step.exit.us.us:                 ; preds = %for.body.i.us.us, %if.then.us.us
  store i64 %div.i.us.us, ptr @progress_printed, align 8
  %3 = load ptr, ptr @stdout, align 8
  %call1.i.us.us = tail call i32 @fflush(ptr noundef %3)
  br label %for.inc.us.us

for.inc.us.us:                                    ; preds = %memtest_progress_step.exit.us.us, %do.body.us33.us
  %inc.us47.us = add nuw nsw i64 %w.027.us37.us, 1
  %exitcond.not = icmp eq i64 %inc.us47.us, %div225
  br i1 %exitcond.not, label %for.cond7.for.inc21_crit_edge.split.us49.us, label %do.body.us33.us, !llvm.loop !10

for.cond7.for.inc21_crit_edge.split.us49.us:      ; preds = %for.inc.us.us
  %inc22.us.us = add nuw nsw i64 %off.031.us.us, 1
  %exitcond54.not = icmp eq i64 %inc22.us.us, 512
  br i1 %exitcond54.not, label %for.end23, label %for.body.us.us, !llvm.loop !11

for.body.us:                                      ; preds = %for.cond.preheader.split.us, %for.cond7.for.inc21_crit_edge.split.us.us
  %rseed.032.us = phi i64 [ %xor13.us.us, %for.cond7.for.inc21_crit_edge.split.us.us ], [ -3372857614747716250, %for.cond.preheader.split.us ]
  %off.031.us = phi i64 [ %inc22.us, %for.cond7.for.inc21_crit_edge.split.us.us ], [ 0, %for.cond.preheader.split.us ]
  %add.ptr.us = getelementptr inbounds i64, ptr %l, i64 %off.031.us
  %add.ptr6.us = getelementptr inbounds i64, ptr %add.ptr.us, i64 %div124
  br label %do.body.us.us

do.body.us.us:                                    ; preds = %do.body.us.us, %for.body.us
  %rseed.130.us.us = phi i64 [ %rseed.032.us, %for.body.us ], [ %xor13.us.us, %do.body.us.us ]
  %l2.029.us.us = phi ptr [ %add.ptr6.us, %for.body.us ], [ %add.ptr15.us.us, %do.body.us.us ]
  %l1.028.us.us = phi ptr [ %add.ptr.us, %for.body.us ], [ %add.ptr14.us.us, %do.body.us.us ]
  %w.027.us.us = phi i64 [ 0, %for.body.us ], [ %inc.us.us, %do.body.us.us ]
  %shr.us.us = lshr i64 %rseed.130.us.us, 12
  %xor.us.us = xor i64 %shr.us.us, %rseed.130.us.us
  %shl.us.us = shl i64 %xor.us.us, 25
  %xor11.us.us = xor i64 %shl.us.us, %xor.us.us
  %shr12.us.us = lshr i64 %xor11.us.us, 27
  %xor13.us.us = xor i64 %shr12.us.us, %xor11.us.us
  %mul.us.us = mul i64 %xor13.us.us, 2685821657736338717
  store i64 %mul.us.us, ptr %l2.029.us.us, align 8
  store i64 %mul.us.us, ptr %l1.028.us.us, align 8
  %add.ptr14.us.us = getelementptr inbounds i8, ptr %l1.028.us.us, i64 4096
  %add.ptr15.us.us = getelementptr inbounds i8, ptr %l2.029.us.us, i64 4096
  %inc.us.us = add nuw nsw i64 %w.027.us.us, 1
  %exitcond55.not = icmp eq i64 %inc.us.us, %div225
  br i1 %exitcond55.not, label %for.cond7.for.inc21_crit_edge.split.us.us, label %do.body.us.us, !llvm.loop !10

for.cond7.for.inc21_crit_edge.split.us.us:        ; preds = %do.body.us.us
  %inc22.us = add nuw nsw i64 %off.031.us, 1
  %exitcond56.not = icmp eq i64 %inc22.us, 512
  br i1 %exitcond56.not, label %for.end23, label %for.body.us, !llvm.loop !11

cond.false:                                       ; preds = %entry
  tail call void @_serverAssert(ptr noundef nonnull @.str.8, ptr noundef nonnull @.str.9, i32 noundef 156) #14
  tail call void @abort() #13
  unreachable

for.end23:                                        ; preds = %for.cond7.for.inc21_crit_edge.split.us49.us, %for.cond7.for.inc21_crit_edge.split.us.us, %for.cond.preheader
  ret void
}